(dp1
S'1020482'
p2
V7.89036
p3
sS'1111249'
p4
V7.96752
p5
sS'1062890'
p6
V7.89086
p7
sS'1102841'
p8
V7.95614
p9
sS'1092723'
p10
V7.93
p11
sS'1179664'
p12
V7.94201
p13
sS'158005'
p14
V7.89273
p15
sS'1106877'
p16
V7.92856
p17
sS'966375'
p18
V7.8652
p19
sS'118731'
p20
V7.88438
p21
sS'1091598'
p22
V7.93839
p23
sS'1088079'
p24
V7.91183
p25
sS'1173683'
p26
V8.15329
p27
sS'1013421'
p28
V8.01265
p29
sS'1014320'
p30
V7.91518
p31
sS'423136'
p32
V7.87328
p33
sS'1032115'
p34
V8.05604
p35
sS'1061496'
p36
V8.0173
p37
sS'1149793'
p38
V7.8829
p39
sS'1047432'
p40
V7.88896
p41
sS'1041130'
p42
V8.09828
p43
sS'1196039'
p44
V7.86044
p45
sS'1177422'
p46
V7.8621
p47
sS'732809'
p48
V7.89167
p49
sS'717762'
p50
V7.91257
p51
sS'1085297'
p52
V7.96259
p53
sS'1004716'
p54
V7.88706
p55
sS'37965'
p56
V7.91514
p57
sS'876830'
p58
V7.86362
p59
sS'1062171'
p60
V8.07339
p61
sS'1171015'
p62
V8.01186
p63
sS'499642'
p64
V7.87227
p65
sS'1159082'
p66
V8.29162
p67
sS'1049867'
p68
V8.02136
p69
sS'1090240'
p70
V7.8774
p71
sS'986115'
p72
V7.95862
p73
sS'1051383'
p74
V7.86317
p75
sS'1179339'
p76
V8.14967
p77
sS'1176823'
p78
V8.04215
p79
sS'1100232'
p80
V8.10127
p81
sS'1176899'
p82
V7.92245
p83
sS'130165'
p84
V7.86631
p85
sS'1138007'
p86
V7.91642
p87
sS'1095107'
p88
V7.99319
p89
sS'124854'
p90
V7.86947
p91
sS'1021383'
p92
V8.01803
p93
sS'1176931'
p94
V7.87814
p95
sS'523277'
p96
V7.87537
p97
sS'1097402'
p98
V8.47978
p99
sS'1181615'
p100
V7.89687
p101
sS'1184381'
p102
V7.9272
p103
sS'1018966'
p104
V7.9106
p105
sS'102529'
p106
V7.93213
p107
sS'1143242'
p108
V8.02181
p109
sS'34'
p110
V7.98359
p111
sS'1175000'
p112
V7.90189
p113
sS'1112541'
p114
V7.86421
p115
sS'1173890'
p116
V7.98507
p117
sS'20526'
p118
V7.93241
p119
sS'1019266'
p120
V7.89771
p121
sS'113701'
p122
V7.97372
p123
sS'1037149'
p124
V7.90255
p125
sS'1055068'
p126
V7.88976
p127
sS'1181290'
p128
V7.95931
p129
sS'1091790'
p130
V7.88894
p131
sS'997153'
p132
V7.89643
p133
sS'1158795'
p134
V7.95229
p135
sS'932731'
p136
V7.87103
p137
sS'1170402'
p138
V7.87975
p139
sS'1057190'
p140
V7.89336
p141
sS'1139619'
p142
V7.87037
p143
sS'1193729'
p144
V7.95261
p145
sS'1052855'
p146
V7.86085
p147
sS'947237'
p148
V7.9114
p149
sS'1194475'
p150
V7.87777
p151
sS'1022919'
p152
V7.96802
p153
sS'1020862'
p154
V7.88675
p155
sS'104961'
p156
V7.91087
p157
sS'989717'
p158
V7.88725
p159
sS'1120133'
p160
V7.97852
p161
sS'1179634'
p162
V7.86198
p163
sS'1179633'
p164
V7.92283
p165
sS'611364'
p166
V7.92702
p167
sS'1173256'
p168
V8.0228
p169
sS'1091089'
p170
V7.98597
p171
sS'1188144'
p172
V7.90145
p173
sS'939396'
p174
V7.87233
p175
sS'1109378'
p176
V7.92304
p177
sS'1177644'
p178
V7.88034
p179
sS'1071503'
p180
V7.88487
p181
sS'1055675'
p182
V7.88542
p183
sS'1173024'
p184
V8.14731
p185
sS'960876'
p186
V7.99417
p187
sS'1098969'
p188
V7.93377
p189
sS'1171118'
p190
V7.8916
p191
sS'1108170'
p192
V7.95958
p193
sS'1182346'
p194
V7.93471
p195
sS'962051'
p196
V7.9621
p197
sS'1036680'
p198
V7.90941
p199
sS'1048205'
p200
V7.92133
p201
sS'1170877'
p202
V7.88506
p203
sS'1184457'
p204
V7.87282
p205
sS'1122099'
p206
V7.88387
p207
sS'1097107'
p208
V7.98052
p209
sS'1063244'
p210
V7.88866
p211
sS'1186389'
p212
V7.94226
p213
sS'46043'
p214
V7.97254
p215
sS'1174271'
p216
V7.90777
p217
sS'64730'
p218
V7.86978
p219
sS'1128067'
p220
V8.09221
p221
sS'1147016'
p222
V7.87664
p223
sS'1144173'
p224
V7.91056
p225
sS'1151817'
p226
V7.89373
p227
sS'1043798'
p228
V7.91131
p229
sS'1144073'
p230
V8.01413
p231
sS'152465'
p232
V7.86095
p233
sS'955905'
p234
V7.86107
p235
sS'1134431'
p236
V7.99368
p237
sS'1135757'
p238
V7.88876
p239
sS'1104165'
p240
V8.17997
p241
sS'1038071'
p242
V7.93489
p243
sS'492219'
p244
V7.97565
p245
sS'1115642'
p246
V7.90263
p247
sS'395885'
p248
V7.94297
p249
sS'1188450'
p250
V7.94074
p251
sS'1191814'
p252
V7.88119
p253
sS'1121629'
p254
V8.02686
p255
sS'1081995'
p256
V7.89707
p257
sS'1137848'
p258
V7.88981
p259
sS'597384'
p260
V7.86957
p261
sS'1060068'
p262
V7.92339
p263
sS'1137845'
p264
V7.92603
p265
sS'1177889'
p266
V7.91513
p267
sS'1117829'
p268
V8.03915
p269
sS'1020075'
p270
V7.99259
p271
sS'1117822'
p272
V7.93023
p273
sS'89463'
p274
V7.88898
p275
sS'270137'
p276
V7.89831
p277
sS'1022184'
p278
V7.86106
p279
sS'1110581'
p280
V7.87183
p281
sS'1054888'
p282
V7.92147
p283
sS'1097332'
p284
V8.04754
p285
sS'1081567'
p286
V7.92576
p287
sS'1065145'
p288
V7.86257
p289
sS'1181167'
p290
V8.08273
p291
sS'760787'
p292
V7.86823
p293
sS'1140444'
p294
V7.86912
p295
sS'1091570'
p296
V7.90526
p297
sS'1071882'
p298
V7.92995
p299
sS'1042122'
p300
V8.15998
p301
sS'1194222'
p302
V7.88166
p303
sS'1174892'
p304
V8.17512
p305
sS'1084947'
p306
V7.90209
p307
sS'1146783'
p308
V7.8755
p309
sS'1068931'
p310
V8.08782
p311
sS'899502'
p312
V7.87127
p313
sS'1021557'
p314
V7.86385
p315
sS'1096557'
p316
V7.964
p317
sS'1053390'
p318
V7.9209
p319
sS'1088062'
p320
V7.89263
p321
sS'102947'
p322
V7.86338
p323
sS'1090594'
p324
V7.90637
p325
sS'1194986'
p326
V7.8821
p327
sS'274551'
p328
V7.88245
p329
sS'505274'
p330
V7.86886
p331
sS'16541'
p332
V7.89076
p333
sS'1099764'
p334
V7.86366
p335
sS'1099766'
p336
V7.97978
p337
sS'1073579'
p338
V7.89444
p339
sS'918644'
p340
V7.86061
p341
sS'1089508'
p342
V8.15227
p343
sS'1027025'
p344
V7.94321
p345
sS'1111981'
p346
V7.97092
p347
sS'1052967'
p348
V7.8657
p349
sS'1172632'
p350
V7.86411
p351
sS'1018675'
p352
V7.89591
p353
sS'1067921'
p354
V7.88153
p355
sS'1089788'
p356
V7.9326
p357
sS'1119937'
p358
V7.95142
p359
sS'1089130'
p360
V7.97242
p361
sS'486958'
p362
V7.86213
p363
sS'1184461'
p364
V7.94245
p365
sS'917210'
p366
V7.87599
p367
sS'1021945'
p368
V8.09057
p369
sS'1129961'
p370
V7.87085
p371
sS'1074222'
p372
V7.9242
p373
sS'1192107'
p374
V7.95376
p375
sS'1179324'
p376
V7.98549
p377
sS'1179325'
p378
V8.03272
p379
sS'1111135'
p380
V8.01273
p381
sS'1171220'
p382
V7.88269
p383
sS'1021779'
p384
V7.87359
p385
sS'1195102'
p386
V7.89152
p387
sS'1066627'
p388
V7.8921
p389
sS'1171521'
p390
V8.02435
p391
sS'596738'
p392
V7.87853
p393
sS'1175642'
p394
V7.92067
p395
sS'1176900'
p396
V7.89083
p397
sS'1176909'
p398
V7.88859
p399
sS'1344'
p400
V7.86653
p401
sS'1038603'
p402
V8.09057
p403
sS'1036305'
p404
V7.92448
p405
sS'1161129'
p406
V7.8813
p407
sS'1023704'
p408
V7.92565
p409
sS'237739'
p410
V7.91458
p411
sS'1052646'
p412
V7.8688
p413
sS'1032310'
p414
V7.86376
p415
sS'1130770'
p416
V7.86879
p417
sS'1049457'
p418
V7.90069
p419
sS'1028401'
p420
V7.94541
p421
sS'1193038'
p422
V7.92383
p423
sS'1170646'
p424
V8.05009
p425
sS'1136008'
p426
V7.86893
p427
sS'1177529'
p428
V7.8972
p429
sS'1069276'
p430
V7.87268
p431
sS'1171013'
p432
V8.20997
p433
sS'1104385'
p434
V7.91622
p435
sS'1032499'
p436
V7.98585
p437
sS'1143116'
p438
V7.8837
p439
sS'1171845'
p440
V7.91707
p441
sS'916412'
p442
V7.87454
p443
sS'1192007'
p444
V7.95372
p445
sS'1089096'
p446
V8.01278
p447
sS'1039583'
p448
V8.06847
p449
sS'116057'
p450
V8.04761
p451
sS'1020740'
p452
V7.95149
p453
sS'91924'
p454
V7.87288
p455
sS'1038695'
p456
V8.06865
p457
sS'1167685'
p458
V7.99222
p459
sS'1042603'
p460
V7.93262
p461
sS'1070333'
p462
V7.89603
p463
sS'59622'
p464
V7.96317
p465
sS'1038498'
p466
V7.89899
p467
sS'1156820'
p468
V7.88188
p469
sS'1025518'
p470
V7.95184
p471
sS'1065093'
p472
V8.02276
p473
sS'158189'
p474
V7.89607
p475
sS'1053729'
p476
V7.88738
p477
sS'1021586'
p478
V7.91805
p479
sS'467882'
p480
V7.87668
p481
sS'1088013'
p482
V7.87289
p483
sS'1065396'
p484
V7.86103
p485
sS'1087699'
p486
V7.94255
p487
sS'1047941'
p488
V7.86243
p489
sS'1137582'
p490
V7.8741
p491
sS'1189170'
p492
V7.86398
p493
sS'1043649'
p494
V7.91462
p495
sS'1174938'
p496
V7.86585
p497
sS'437715'
p498
V7.86783
p499
sS'1054328'
p500
V8.01842
p501
sS'1026692'
p502
V7.88039
p503
sS'1023559'
p504
V7.91916
p505
sS'1024856'
p506
V7.8669
p507
sS'1113566'
p508
V7.86247
p509
sS'1021177'
p510
V7.87035
p511
sS'1174349'
p512
V8.12909
p513
sS'77701'
p514
V7.8807
p515
sS'237461'
p516
V7.89628
p517
sS'1038238'
p518
V7.95077
p519
sS'1020209'
p520
V8.17833
p521
sS'919649'
p522
V7.88378
p523
sS'1082323'
p524
V7.98514
p525
sS'1045010'
p526
V7.92141
p527
sS'67681'
p528
V7.89459
p529
sS'1168038'
p530
V7.96354
p531
sS'411568'
p532
V7.91385
p533
sS'1142613'
p534
V7.8841
p535
sS'1180396'
p536
V8.04769
p537
sS'128397'
p538
V7.90369
p539
sS'1039889'
p540
V8.01233
p541
sS'1177641'
p542
V7.92823
p543
sS'1192011'
p544
V8.01045
p545
sS'1192762'
p546
V7.8972
p547
sS'1063670'
p548
V8.09013
p549
sS'988031'
p550
V7.9733
p551
sS'1018905'
p552
V7.89467
p553
sS'1020705'
p554
V8.00436
p555
sS'1105382'
p556
V7.86618
p557
sS'1040327'
p558
V7.96809
p559
sS'1182979'
p560
V7.89474
p561
sS'1124337'
p562
V7.88649
p563
sS'1177802'
p564
V8.02881
p565
sS'1056876'
p566
V8.0003
p567
sS'266842'
p568
V7.9583
p569
sS'1077039'
p570
V7.96284
p571
sS'1087958'
p572
V7.86383
p573
sS'977407'
p574
V7.95143
p575
sS'1041727'
p576
V7.87355
p577
sS'1030887'
p578
V8.07657
p579
sS'1181179'
p580
V7.95993
p581
sS'1179130'
p582
V7.86495
p583
sS'482030'
p584
V7.93214
p585
sS'1172350'
p586
V7.94223
p587
sS'1053372'
p588
V7.86187
p589
sS'1021548'
p590
V7.8877
p591
sS'1056412'
p592
V7.87995
p593
sS'1170132'
p594
V7.95745
p595
sS'1054896'
p596
V7.89396
p597
sS'1174041'
p598
V7.86433
p599
sS'1106420'
p600
V8.04954
p601
sS'1045507'
p602
V7.86059
p603
sS'1029808'
p604
V7.87375
p605
sS'1038217'
p606
V7.96538
p607
sS'1022695'
p608
V7.87272
p609
sS'1041804'
p610
V7.87552
p611
sS'1070363'
p612
V8.07474
p613
sS'1083461'
p614
V7.9887
p615
sS'1179991'
p616
V7.88345
p617
sS'1149779'
p618
V7.98826
p619
sS'1065995'
p620
V7.9241
p621
sS'931624'
p622
V7.90551
p623
sS'1194280'
p624
V7.87777
p625
sS'1087058'
p626
V7.90564
p627
sS'1194352'
p628
V8.00075
p629
sS'1129951'
p630
V7.99188
p631
sS'1129957'
p632
V7.92611
p633
sS'1070700'
p634
V7.86437
p635
sS'1193136'
p636
V7.87627
p637
sS'961891'
p638
V7.92984
p639
sS'1066311'
p640
V7.91088
p641
sS'1180187'
p642
V7.86887
p643
sS'2805'
p644
V7.90618
p645
sS'1177609'
p646
V7.96392
p647
sS'158363'
p648
V7.98562
p649
sS'1046294'
p650
V7.92185
p651
sS'1055141'
p652
V8.05479
p653
sS'1187417'
p654
V7.90224
p655
sS'1026782'
p656
V7.86965
p657
sS'1062608'
p658
V8.01844
p659
sS'1080388'
p660
V7.91291
p661
sS'675969'
p662
V7.88615
p663
sS'1026967'
p664
V7.94351
p665
sS'1177992'
p666
V7.8821
p667
sS'1176912'
p668
V7.97437
p669
sS'1044175'
p670
V7.87869
p671
sS'1187707'
p672
V7.90045
p673
sS'1092292'
p674
V7.87818
p675
sS'116661'
p676
V7.86604
p677
sS'1097833'
p678
V7.91506
p679
sS'103031'
p680
V7.86035
p681
sS'1129562'
p682
V7.89909
p683
sS'1176988'
p684
V8.16268
p685
sS'1192384'
p686
V7.96681
p687
sS'1176825'
p688
V8.08167
p689
sS'1191696'
p690
V7.89416
p691
sS'1172073'
p692
V8.29216
p693
sS'1109753'
p694
V7.98967
p695
sS'1075880'
p696
V8.1491
p697
sS'1122096'
p698
V7.88469
p699
sS'1055528'
p700
V7.91168
p701
sS'932714'
p702
V7.8996
p703
sS'1157617'
p704
V8.09143
p705
sS'753400'
p706
V7.87946
p707
sS'1137453'
p708
V7.8978
p709
sS'1181635'
p710
V8.05466
p711
sS'1172554'
p712
V7.87199
p713
sS'1177079'
p714
V7.94345
p715
sS'1180776'
p716
V7.94101
p717
sS'1079275'
p718
V7.91805
p719
sS'1026411'
p720
V7.96656
p721
sS'1096236'
p722
V7.87485
p723
sS'1082015'
p724
V7.96324
p725
sS'1025466'
p726
V7.90861
p727
sS'1182261'
p728
V7.89715
p729
sS'1050341'
p730
V7.91007
p731
sS'1126577'
p732
V8.09532
p733
sS'1130637'
p734
V7.8728
p735
sS'1172328'
p736
V7.93522
p737
sS'1021478'
p738
V7.88325
p739
sS'10469'
p740
V7.91312
p741
sS'1074362'
p742
V7.97035
p743
sS'1187083'
p744
V7.90304
p745
sS'1028562'
p746
V7.864
p747
sS'1171828'
p748
V8.11952
p749
sS'1024699'
p750
V7.98269
p751
sS'1096941'
p752
V7.87607
p753
sS'1091937'
p754
V8.04662
p755
sS'1133358'
p756
V7.87512
p757
sS'1061747'
p758
V8.15327
p759
sS'1091851'
p760
V7.89188
p761
sS'1114106'
p762
V7.91061
p763
sS'1145015'
p764
V7.88617
p765
sS'44145'
p766
V7.89191
p767
sS'436506'
p768
V7.93455
p769
sS'1195127'
p770
V7.88098
p771
sS'1170993'
p772
V8.79598
p773
sS'1136602'
p774
V7.9845
p775
sS'1149787'
p776
V7.88876
p777
sS'1156281'
p778
V7.92759
p779
sS'1173041'
p780
V7.92427
p781
sS'935270'
p782
V7.98433
p783
sS'494505'
p784
V7.89021
p785
sS'1080068'
p786
V7.97638
p787
sS'12676'
p788
V7.89913
p789
sS'1192277'
p790
V7.87777
p791
sS'1045768'
p792
V7.98921
p793
sS'1038326'
p794
V7.86004
p795
sS'1020272'
p796
V8.22147
p797
sS'1038244'
p798
V7.95339
p799
sS'1118686'
p800
V7.86207
p801
sS'14992'
p802
V7.89126
p803
sS'1058706'
p804
V7.91663
p805
sS'1108023'
p806
V8.14461
p807
sS'1099129'
p808
V7.86813
p809
sS'1023576'
p810
V7.99617
p811
sS'1007316'
p812
V7.87412
p813
sS'1183967'
p814
V7.87849
p815
sS'1176498'
p816
V7.89234
p817
sS'1030523'
p818
V7.92653
p819
sS'73698'
p820
V8.06564
p821
sS'1179341'
p822
V7.87699
p823
sS'1045615'
p824
V7.95439
p825
sS'1128713'
p826
V7.89284
p827
sS'1067994'
p828
V7.94043
p829
sS'1020909'
p830
V7.88936
p831
sS'902064'
p832
V7.87629
p833
sS'1175322'
p834
V7.91744
p835
sS'681024'
p836
V7.88389
p837
sS'1123051'
p838
V7.87462
p839
sS'1144594'
p840
V7.96489
p841
sS'1026617'
p842
V7.97419
p843
sS'1192981'
p844
V8.00776
p845
sS'1060395'
p846
V8.08691
p847
sS'126395'
p848
V7.87358
p849
sS'1184713'
p850
V7.87928
p851
sS'1182363'
p852
V8.00032
p853
sS'1117562'
p854
V7.97478
p855
sS'1081880'
p856
V7.95017
p857
sS'1144059'
p858
V8.07464
p859
sS'111629'
p860
V8.06834
p861
sS'1002733'
p862
V7.88519
p863
sS'1094539'
p864
V7.87497
p865
sS'1084539'
p866
V7.87748
p867
sS'237639'
p868
V7.8935
p869
sS'1020999'
p870
V7.90526
p871
sS'1065180'
p872
V7.88024
p873
sS'1101259'
p874
V7.88097
p875
sS'919148'
p876
V7.88396
p877
sS'1116224'
p878
V7.9987
p879
sS'1194445'
p880
V7.87765
p881
sS'1022909'
p882
V7.95337
p883
sS'1171383'
p884
V7.8605
p885
sS'1033474'
p886
V7.91116
p887
sS'1073483'
p888
V8.1109
p889
sS'1187062'
p890
V7.94067
p891
sS'1051266'
p892
V7.96911
p893
sS'1060829'
p894
V7.95965
p895
sS'1173249'
p896
V7.99751
p897
sS'985703'
p898
V7.91798
p899
sS'1175712'
p900
V7.93456
p901
sS'1061854'
p902
V7.97261
p903
sS'1071267'
p904
V7.87168
p905
sS'1151186'
p906
V7.86369
p907
sS'269875'
p908
V7.92839
p909
sS'1189624'
p910
V7.91339
p911
sS'1101597'
p912
V7.91181
p913
sS'1022408'
p914
V7.96441
p915
sS'424890'
p916
V8.05628
p917
sS'1171162'
p918
V7.88094
p919
sS'1149049'
p920
V7.91551
p921
sS'1036531'
p922
V7.92716
p923
sS'1116643'
p924
V7.88361
p925
sS'524887'
p926
V7.96466
p927
sS'1174919'
p928
V7.8669
p929
sS'1176748'
p930
V7.87613
p931
sS'268979'
p932
V7.89069
p933
sS'1037963'
p934
V7.92023
p935
sS'1067655'
p936
V7.9016
p937
sS'1113236'
p938
V8.03282
p939
sS'1097073'
p940
V7.92122
p941
sS'1087754'
p942
V7.89043
p943
sS'1176847'
p944
V8.35187
p945
sS'1105297'
p946
V7.89418
p947
sS'1026871'
p948
V7.86039
p949
sS'1035531'
p950
V7.89092
p951
sS'1079640'
p952
V8.00734
p953
sS'1068253'
p954
V7.97223
p955
sS'981217'
p956
V7.90917
p957
sS'1064782'
p958
V8.15385
p959
sS'1124409'
p960
V7.86176
p961
sS'1064780'
p962
V8.16782
p963
sS'784850'
p964
V7.89046
p965
sS'1064784'
p966
V7.94235
p967
sS'1078062'
p968
V7.88826
p969
sS'1064275'
p970
V7.8732
p971
sS'1009254'
p972
V7.86276
p973
sS'1102096'
p974
V7.87415
p975
sS'1178000'
p976
V7.93813
p977
sS'1084776'
p978
V7.94464
p979
sS'1196604'
p980
V7.91086
p981
sS'1151253'
p982
V7.89621
p983
sS'1110047'
p984
V7.89238
p985
sS'1156619'
p986
V8.0007
p987
sS'1086750'
p988
V7.93094
p989
sS'1183698'
p990
V8.02075
p991
sS'1183697'
p992
V8.03912
p993
sS'1065257'
p994
V7.97958
p995
sS'1177009'
p996
V7.92403
p997
sS'1173542'
p998
V7.89858
p999
sS'1184742'
p1000
V8.02201
p1001
s.