(lp1
S'http://fjlarge.b0.upaiyun.com/pic/1170993.jpg'
p2
aS'http://fjlarge.b0.upaiyun.com/pic/1097402.jpg'
p3
aS'http://fjlarge.b0.upaiyun.com/pic/1176847.jpg'
p4
aS'http://fjlarge.b0.upaiyun.com/pic/1172073.jpg'
p5
aS'http://fjlarge.b0.upaiyun.com/pic/1159082.jpg'
p6
aS'http://fjlarge.b0.upaiyun.com/pic/1020272.jpg'
p7
aS'http://fjlarge.b0.upaiyun.com/pic/1171013.jpg'
p8
aS'http://fjlarge.b0.upaiyun.com/pic/1104165.jpg'
p9
aS'http://fjlarge.b0.upaiyun.com/pic/1020209.jpg'
p10
aS'http://fjlarge.b0.upaiyun.com/pic/1174892.jpg'
p11
aS'http://fjlarge.b0.upaiyun.com/pic/1064780.jpg'
p12
aS'http://fjlarge.b0.upaiyun.com/pic/1176988.jpg'
p13
aS'http://fjlarge.b0.upaiyun.com/pic/1042122.jpg'
p14
aS'http://fjlarge.b0.upaiyun.com/pic/1064782.jpg'
p15
aS'http://fjlarge.b0.upaiyun.com/pic/1173683.jpg'
p16
aS'http://fjlarge.b0.upaiyun.com/pic/1061747.jpg'
p17
aS'http://fjlarge.b0.upaiyun.com/pic/1089508.jpg'
p18
aS'http://fjlarge.b0.upaiyun.com/pic/1179339.jpg'
p19
aS'http://fjlarge.b0.upaiyun.com/pic/1075880.jpg'
p20
aS'http://fjlarge.b0.upaiyun.com/pic/1173024.jpg'
p21
aS'http://fjlarge.b0.upaiyun.com/pic/1108023.jpg'
p22
aS'http://fjlarge.b0.upaiyun.com/pic/1174349.jpg'
p23
aS'http://fjlarge.b0.upaiyun.com/pic/1171828.jpg'
p24
aS'http://fjlarge.b0.upaiyun.com/pic/1073483.jpg'
p25
aS'http://fjlarge.b0.upaiyun.com/pic/1100232.jpg'
p26
aS'http://fjlarge.b0.upaiyun.com/pic/1041130.jpg'
p27
aS'http://fjlarge.b0.upaiyun.com/pic/1126577.jpg'
p28
aS'http://fjlarge.b0.upaiyun.com/pic/1128067.jpg'
p29
aS'http://fjlarge.b0.upaiyun.com/pic/1157617.jpg'
p30
aS'http://fjlarge.b0.upaiyun.com/pic/1021945.jpg'
p31
aS'http://fjlarge.b0.upaiyun.com/pic/1038603.jpg'
p32
aS'http://fjlarge.b0.upaiyun.com/pic/1063670.jpg'
p33
aS'http://fjlarge.b0.upaiyun.com/pic/1068931.jpg'
p34
aS'http://fjlarge.b0.upaiyun.com/pic/1060395.jpg'
p35
aS'http://fjlarge.b0.upaiyun.com/pic/1181167.jpg'
p36
aS'http://fjlarge.b0.upaiyun.com/pic/1176825.jpg'
p37
aS'http://fjlarge.b0.upaiyun.com/pic/1030887.jpg'
p38
aS'http://fjlarge.b0.upaiyun.com/pic/1070363.jpg'
p39
aS'http://fjlarge.b0.upaiyun.com/pic/1144059.jpg'
p40
aS'http://fjlarge.b0.upaiyun.com/pic/1062171.jpg'
p41
aS'http://fjlarge.b0.upaiyun.com/pic/1038695.jpg'
p42
aS'http://fjlarge.b0.upaiyun.com/pic/1039583.jpg'
p43
aS'http://fjlarge.b0.upaiyun.com/pic/111629.jpg'
p44
aS'http://fjlarge.b0.upaiyun.com/pic/73698.jpg'
p45
aS'http://fjlarge.b0.upaiyun.com/pic/424890.jpg'
p46
aS'http://fjlarge.b0.upaiyun.com/pic/1032115.jpg'
p47
aS'http://fjlarge.b0.upaiyun.com/pic/1055141.jpg'
p48
aS'http://fjlarge.b0.upaiyun.com/pic/1181635.jpg'
p49
aS'http://fjlarge.b0.upaiyun.com/pic/1170646.jpg'
p50
aS'http://fjlarge.b0.upaiyun.com/pic/1106420.jpg'
p51
aS'http://fjlarge.b0.upaiyun.com/pic/1180396.jpg'
p52
aS'http://fjlarge.b0.upaiyun.com/pic/116057.jpg'
p53
aS'http://fjlarge.b0.upaiyun.com/pic/1097332.jpg'
p54
aS'http://fjlarge.b0.upaiyun.com/pic/1091937.jpg'
p55
aS'http://fjlarge.b0.upaiyun.com/pic/1176823.jpg'
p56
aS'http://fjlarge.b0.upaiyun.com/pic/1117829.jpg'
p57
aS'http://fjlarge.b0.upaiyun.com/pic/1183697.jpg'
p58
aS'http://fjlarge.b0.upaiyun.com/pic/1113236.jpg'
p59
aS'http://fjlarge.b0.upaiyun.com/pic/1179325.jpg'
p60
aS'http://fjlarge.b0.upaiyun.com/pic/1177802.jpg'
p61
aS'http://fjlarge.b0.upaiyun.com/pic/1121629.jpg'
p62
aS'http://fjlarge.b0.upaiyun.com/pic/1171521.jpg'
p63
aS'http://fjlarge.b0.upaiyun.com/pic/1173256.jpg'
p64
aS'http://fjlarge.b0.upaiyun.com/pic/1065093.jpg'
p65
aS'http://fjlarge.b0.upaiyun.com/pic/1184742.jpg'
p66
aS'http://fjlarge.b0.upaiyun.com/pic/1143242.jpg'
p67
aS'http://fjlarge.b0.upaiyun.com/pic/1049867.jpg'
p68
aS'http://fjlarge.b0.upaiyun.com/pic/1183698.jpg'
p69
aS'http://fjlarge.b0.upaiyun.com/pic/1062608.jpg'
p70
aS'http://fjlarge.b0.upaiyun.com/pic/1054328.jpg'
p71
aS'http://fjlarge.b0.upaiyun.com/pic/1021383.jpg'
p72
aS'http://fjlarge.b0.upaiyun.com/pic/1061496.jpg'
p73
aS'http://fjlarge.b0.upaiyun.com/pic/1144073.jpg'
p74
aS'http://fjlarge.b0.upaiyun.com/pic/1089096.jpg'
p75
aS'http://fjlarge.b0.upaiyun.com/pic/1111135.jpg'
p76
aS'http://fjlarge.b0.upaiyun.com/pic/1013421.jpg'
p77
aS'http://fjlarge.b0.upaiyun.com/pic/1039889.jpg'
p78
aS'http://fjlarge.b0.upaiyun.com/pic/1171015.jpg'
p79
aS'http://fjlarge.b0.upaiyun.com/pic/1192011.jpg'
p80
aS'http://fjlarge.b0.upaiyun.com/pic/1192981.jpg'
p81
aS'http://fjlarge.b0.upaiyun.com/pic/1079640.jpg'
p82
aS'http://fjlarge.b0.upaiyun.com/pic/1020705.jpg'
p83
aS'http://fjlarge.b0.upaiyun.com/pic/1194352.jpg'
p84
aS'http://fjlarge.b0.upaiyun.com/pic/1156619.jpg'
p85
aS'http://fjlarge.b0.upaiyun.com/pic/1182363.jpg'
p86
aS'http://fjlarge.b0.upaiyun.com/pic/1056876.jpg'
p87
aS'http://fjlarge.b0.upaiyun.com/pic/1116224.jpg'
p88
aS'http://fjlarge.b0.upaiyun.com/pic/1173249.jpg'
p89
aS'http://fjlarge.b0.upaiyun.com/pic/1023576.jpg'
p90
aS'http://fjlarge.b0.upaiyun.com/pic/960876.jpg'
p91
aS'http://fjlarge.b0.upaiyun.com/pic/1134431.jpg'
p92
aS'http://fjlarge.b0.upaiyun.com/pic/1095107.jpg'
p93
aS'http://fjlarge.b0.upaiyun.com/pic/1020075.jpg'
p94
aS'http://fjlarge.b0.upaiyun.com/pic/1167685.jpg'
p95
aS'http://fjlarge.b0.upaiyun.com/pic/1129951.jpg'
p96
aS'http://fjlarge.b0.upaiyun.com/pic/1109753.jpg'
p97
aS'http://fjlarge.b0.upaiyun.com/pic/1045768.jpg'
p98
aS'http://fjlarge.b0.upaiyun.com/pic/1083461.jpg'
p99
aS'http://fjlarge.b0.upaiyun.com/pic/1149779.jpg'
p100
aS'http://fjlarge.b0.upaiyun.com/pic/1091089.jpg'
p101
aS'http://fjlarge.b0.upaiyun.com/pic/1032499.jpg'
p102
aS'http://fjlarge.b0.upaiyun.com/pic/158363.jpg'
p103
aS'http://fjlarge.b0.upaiyun.com/pic/1179324.jpg'
p104
aS'http://fjlarge.b0.upaiyun.com/pic/1082323.jpg'
p105
aS'http://fjlarge.b0.upaiyun.com/pic/1173890.jpg'
p106
aS'http://fjlarge.b0.upaiyun.com/pic/1136602.jpg'
p107
aS'http://fjlarge.b0.upaiyun.com/pic/935270.jpg'
p108
aS'http://fjlarge.b0.upaiyun.com/pic/34.jpg'
p109
aS'http://fjlarge.b0.upaiyun.com/pic/1024699.jpg'
p110
aS'http://fjlarge.b0.upaiyun.com/pic/1097107.jpg'
p111
aS'http://fjlarge.b0.upaiyun.com/pic/1099766.jpg'
p112
aS'http://fjlarge.b0.upaiyun.com/pic/1065257.jpg'
p113
aS'http://fjlarge.b0.upaiyun.com/pic/1120133.jpg'
p114
aS'http://fjlarge.b0.upaiyun.com/pic/1080068.jpg'
p115
aS'http://fjlarge.b0.upaiyun.com/pic/492219.jpg'
p116
aS'http://fjlarge.b0.upaiyun.com/pic/1117562.jpg'
p117
aS'http://fjlarge.b0.upaiyun.com/pic/1176912.jpg'
p118
aS'http://fjlarge.b0.upaiyun.com/pic/1026617.jpg'
p119
aS'http://fjlarge.b0.upaiyun.com/pic/113701.jpg'
p120
aS'http://fjlarge.b0.upaiyun.com/pic/988031.jpg'
p121
aS'http://fjlarge.b0.upaiyun.com/pic/1061854.jpg'
p122
aS'http://fjlarge.b0.upaiyun.com/pic/46043.jpg'
p123
aS'http://fjlarge.b0.upaiyun.com/pic/1089130.jpg'
p124
aS'http://fjlarge.b0.upaiyun.com/pic/1068253.jpg'
p125
aS'http://fjlarge.b0.upaiyun.com/pic/1111981.jpg'
p126
aS'http://fjlarge.b0.upaiyun.com/pic/1074362.jpg'
p127
aS'http://fjlarge.b0.upaiyun.com/pic/1051266.jpg'
p128
aS'http://fjlarge.b0.upaiyun.com/pic/1040327.jpg'
p129
aS'http://fjlarge.b0.upaiyun.com/pic/1022919.jpg'
p130
aS'http://fjlarge.b0.upaiyun.com/pic/1111249.jpg'
p131
aS'http://fjlarge.b0.upaiyun.com/pic/1192384.jpg'
p132
aS'http://fjlarge.b0.upaiyun.com/pic/1026411.jpg'
p133
aS'http://fjlarge.b0.upaiyun.com/pic/1038217.jpg'
p134
aS'http://fjlarge.b0.upaiyun.com/pic/1144594.jpg'
p135
aS'http://fjlarge.b0.upaiyun.com/pic/524887.jpg'
p136
aS'http://fjlarge.b0.upaiyun.com/pic/1022408.jpg'
p137
aS'http://fjlarge.b0.upaiyun.com/pic/1096557.jpg'
p138
aS'http://fjlarge.b0.upaiyun.com/pic/1177609.jpg'
p139
aS'http://fjlarge.b0.upaiyun.com/pic/1168038.jpg'
p140
aS'http://fjlarge.b0.upaiyun.com/pic/1082015.jpg'
p141
aS'http://fjlarge.b0.upaiyun.com/pic/59622.jpg'
p142
aS'http://fjlarge.b0.upaiyun.com/pic/1077039.jpg'
p143
aS'http://fjlarge.b0.upaiyun.com/pic/1085297.jpg'
p144
aS'http://fjlarge.b0.upaiyun.com/pic/962051.jpg'
p145
aS'http://fjlarge.b0.upaiyun.com/pic/1181179.jpg'
p146
aS'http://fjlarge.b0.upaiyun.com/pic/1060829.jpg'
p147
aS'http://fjlarge.b0.upaiyun.com/pic/1108170.jpg'
p148
aS'http://fjlarge.b0.upaiyun.com/pic/1181290.jpg'
p149
aS'http://fjlarge.b0.upaiyun.com/pic/986115.jpg'
p150
aS'http://fjlarge.b0.upaiyun.com/pic/266842.jpg'
p151
aS'http://fjlarge.b0.upaiyun.com/pic/1170132.jpg'
p152
aS'http://fjlarge.b0.upaiyun.com/pic/1102841.jpg'
p153
aS'http://fjlarge.b0.upaiyun.com/pic/1045615.jpg'
p154
aS'http://fjlarge.b0.upaiyun.com/pic/1192107.jpg'
p155
aS'http://fjlarge.b0.upaiyun.com/pic/1192007.jpg'
p156
aS'http://fjlarge.b0.upaiyun.com/pic/1038244.jpg'
p157
aS'http://fjlarge.b0.upaiyun.com/pic/1022909.jpg'
p158
aS'http://fjlarge.b0.upaiyun.com/pic/1193729.jpg'
p159
aS'http://fjlarge.b0.upaiyun.com/pic/1158795.jpg'
p160
aS'http://fjlarge.b0.upaiyun.com/pic/1025518.jpg'
p161
aS'http://fjlarge.b0.upaiyun.com/pic/1020740.jpg'
p162
aS'http://fjlarge.b0.upaiyun.com/pic/977407.jpg'
p163
aS'http://fjlarge.b0.upaiyun.com/pic/1119937.jpg'
p164
aS'http://fjlarge.b0.upaiyun.com/pic/1038238.jpg'
p165
aS'http://fjlarge.b0.upaiyun.com/pic/1081880.jpg'
p166
aS'http://fjlarge.b0.upaiyun.com/pic/1028401.jpg'
p167
aS'http://fjlarge.b0.upaiyun.com/pic/1084776.jpg'
p168
aS'http://fjlarge.b0.upaiyun.com/pic/1026967.jpg'
p169
aS'http://fjlarge.b0.upaiyun.com/pic/1177079.jpg'
p170
aS'http://fjlarge.b0.upaiyun.com/pic/1027025.jpg'
p171
aS'http://fjlarge.b0.upaiyun.com/pic/395885.jpg'
p172
aS'http://fjlarge.b0.upaiyun.com/pic/1087699.jpg'
p173
aS'http://fjlarge.b0.upaiyun.com/pic/1184461.jpg'
p174
aS'http://fjlarge.b0.upaiyun.com/pic/1064784.jpg'
p175
aS'http://fjlarge.b0.upaiyun.com/pic/1186389.jpg'
p176
aS'http://fjlarge.b0.upaiyun.com/pic/1172350.jpg'
p177
aS'http://fjlarge.b0.upaiyun.com/pic/1179664.jpg'
p178
aS'http://fjlarge.b0.upaiyun.com/pic/1180776.jpg'
p179
aS'http://fjlarge.b0.upaiyun.com/pic/1188450.jpg'
p180
aS'http://fjlarge.b0.upaiyun.com/pic/1187062.jpg'
p181
aS'http://fjlarge.b0.upaiyun.com/pic/1067994.jpg'
p182
aS'http://fjlarge.b0.upaiyun.com/pic/1091598.jpg'
p183
aS'http://fjlarge.b0.upaiyun.com/pic/1178000.jpg'
p184
aS'http://fjlarge.b0.upaiyun.com/pic/1172328.jpg'
p185
aS'http://fjlarge.b0.upaiyun.com/pic/1038071.jpg'
p186
aS'http://fjlarge.b0.upaiyun.com/pic/1182346.jpg'
p187
aS'http://fjlarge.b0.upaiyun.com/pic/1175712.jpg'
p188
aS'http://fjlarge.b0.upaiyun.com/pic/436506.jpg'
p189
aS'http://fjlarge.b0.upaiyun.com/pic/1098969.jpg'
p190
aS'http://fjlarge.b0.upaiyun.com/pic/1042603.jpg'
p191
aS'http://fjlarge.b0.upaiyun.com/pic/1089788.jpg'
p192
aS'http://fjlarge.b0.upaiyun.com/pic/20526.jpg'
p193
aS'http://fjlarge.b0.upaiyun.com/pic/482030.jpg'
p194
aS'http://fjlarge.b0.upaiyun.com/pic/102529.jpg'
p195
aS'http://fjlarge.b0.upaiyun.com/pic/1086750.jpg'
p196
aS'http://fjlarge.b0.upaiyun.com/pic/1117822.jpg'
p197
aS'http://fjlarge.b0.upaiyun.com/pic/1092723.jpg'
p198
aS'http://fjlarge.b0.upaiyun.com/pic/1071882.jpg'
p199
aS'http://fjlarge.b0.upaiyun.com/pic/961891.jpg'
p200
aS'http://fjlarge.b0.upaiyun.com/pic/1106877.jpg'
p201
aS'http://fjlarge.b0.upaiyun.com/pic/269875.jpg'
p202
aS'http://fjlarge.b0.upaiyun.com/pic/1177641.jpg'
p203
aS'http://fjlarge.b0.upaiyun.com/pic/1156281.jpg'
p204
aS'http://fjlarge.b0.upaiyun.com/pic/1184381.jpg'
p205
aS'http://fjlarge.b0.upaiyun.com/pic/1036531.jpg'
p206
aS'http://fjlarge.b0.upaiyun.com/pic/611364.jpg'
p207
aS'http://fjlarge.b0.upaiyun.com/pic/1030523.jpg'
p208
aS'http://fjlarge.b0.upaiyun.com/pic/1129957.jpg'
p209
aS'http://fjlarge.b0.upaiyun.com/pic/1137845.jpg'
p210
aS'http://fjlarge.b0.upaiyun.com/pic/1081567.jpg'
p211
aS'http://fjlarge.b0.upaiyun.com/pic/1023704.jpg'
p212
aS'http://fjlarge.b0.upaiyun.com/pic/1036305.jpg'
p213
aS'http://fjlarge.b0.upaiyun.com/pic/1173041.jpg'
p214
aS'http://fjlarge.b0.upaiyun.com/pic/1074222.jpg'
p215
aS'http://fjlarge.b0.upaiyun.com/pic/1065995.jpg'
p216
aS'http://fjlarge.b0.upaiyun.com/pic/1177009.jpg'
p217
aS'http://fjlarge.b0.upaiyun.com/pic/1193038.jpg'
p218
aS'http://fjlarge.b0.upaiyun.com/pic/1060068.jpg'
p219
aS'http://fjlarge.b0.upaiyun.com/pic/1109378.jpg'
p220
aS'http://fjlarge.b0.upaiyun.com/pic/1179633.jpg'
p221
aS'http://fjlarge.b0.upaiyun.com/pic/1176899.jpg'
p222
aS'http://fjlarge.b0.upaiyun.com/pic/1046294.jpg'
p223
aS'http://fjlarge.b0.upaiyun.com/pic/1054888.jpg'
p224
aS'http://fjlarge.b0.upaiyun.com/pic/1045010.jpg'
p225
aS'http://fjlarge.b0.upaiyun.com/pic/1048205.jpg'
p226
aS'http://fjlarge.b0.upaiyun.com/pic/1097073.jpg'
p227
aS'http://fjlarge.b0.upaiyun.com/pic/1053390.jpg'
p228
aS'http://fjlarge.b0.upaiyun.com/pic/1175642.jpg'
p229
aS'http://fjlarge.b0.upaiyun.com/pic/1037963.jpg'
p230
aS'http://fjlarge.b0.upaiyun.com/pic/1023559.jpg'
p231
aS'http://fjlarge.b0.upaiyun.com/pic/1079275.jpg'
p232
aS'http://fjlarge.b0.upaiyun.com/pic/1021586.jpg'
p233
aS'http://fjlarge.b0.upaiyun.com/pic/985703.jpg'
p234
aS'http://fjlarge.b0.upaiyun.com/pic/1175322.jpg'
p235
aS'http://fjlarge.b0.upaiyun.com/pic/1171845.jpg'
p236
aS'http://fjlarge.b0.upaiyun.com/pic/1058706.jpg'
p237
aS'http://fjlarge.b0.upaiyun.com/pic/1138007.jpg'
p238
aS'http://fjlarge.b0.upaiyun.com/pic/1104385.jpg'
p239
aS'http://fjlarge.b0.upaiyun.com/pic/1149049.jpg'
p240
aS'http://fjlarge.b0.upaiyun.com/pic/1014320.jpg'
p241
aS'http://fjlarge.b0.upaiyun.com/pic/37965.jpg'
p242
aS'http://fjlarge.b0.upaiyun.com/pic/1177889.jpg'
p243
aS'http://fjlarge.b0.upaiyun.com/pic/1097833.jpg'
p244
aS'http://fjlarge.b0.upaiyun.com/pic/1043649.jpg'
p245
aS'http://fjlarge.b0.upaiyun.com/pic/237739.jpg'
p246
aS'http://fjlarge.b0.upaiyun.com/pic/411568.jpg'
p247
aS'http://fjlarge.b0.upaiyun.com/pic/1189624.jpg'
p248
aS'http://fjlarge.b0.upaiyun.com/pic/10469.jpg'
p249
aS'http://fjlarge.b0.upaiyun.com/pic/1080388.jpg'
p250
aS'http://fjlarge.b0.upaiyun.com/pic/717762.jpg'
p251
aS'http://fjlarge.b0.upaiyun.com/pic/1088079.jpg'
p252
aS'http://fjlarge.b0.upaiyun.com/pic/1101597.jpg'
p253
aS'http://fjlarge.b0.upaiyun.com/pic/1055528.jpg'
p254
aS'http://fjlarge.b0.upaiyun.com/pic/947237.jpg'
p255
aS'http://fjlarge.b0.upaiyun.com/pic/1043798.jpg'
p256
aS'http://fjlarge.b0.upaiyun.com/pic/1033474.jpg'
p257
aS'http://fjlarge.b0.upaiyun.com/pic/1066311.jpg'
p258
aS'http://fjlarge.b0.upaiyun.com/pic/104961.jpg'
p259
aS'http://fjlarge.b0.upaiyun.com/pic/1196604.jpg'
p260
aS'http://fjlarge.b0.upaiyun.com/pic/1114106.jpg'
p261
aS'http://fjlarge.b0.upaiyun.com/pic/1018966.jpg'
p262
aS'http://fjlarge.b0.upaiyun.com/pic/1144173.jpg'
p263
aS'http://fjlarge.b0.upaiyun.com/pic/1050341.jpg'
p264
aS'http://fjlarge.b0.upaiyun.com/pic/1036680.jpg'
p265
aS'http://fjlarge.b0.upaiyun.com/pic/981217.jpg'
p266
aS'http://fjlarge.b0.upaiyun.com/pic/1025466.jpg'
p267
aS'http://fjlarge.b0.upaiyun.com/pic/1174271.jpg'
p268
aS'http://fjlarge.b0.upaiyun.com/pic/1090594.jpg'
p269
aS'http://fjlarge.b0.upaiyun.com/pic/2805.jpg'
p270
aS'http://fjlarge.b0.upaiyun.com/pic/1087058.jpg'
p271
aS'http://fjlarge.b0.upaiyun.com/pic/931624.jpg'
p272
aS'http://fjlarge.b0.upaiyun.com/pic/1020999.jpg'
p273
aS'http://fjlarge.b0.upaiyun.com/pic/1091570.jpg'
p274
aS'http://fjlarge.b0.upaiyun.com/pic/128397.jpg'
p275
aS'http://fjlarge.b0.upaiyun.com/pic/1187083.jpg'
p276
aS'http://fjlarge.b0.upaiyun.com/pic/1115642.jpg'
p277
aS'http://fjlarge.b0.upaiyun.com/pic/1037149.jpg'
p278
aS'http://fjlarge.b0.upaiyun.com/pic/1187417.jpg'
p279
aS'http://fjlarge.b0.upaiyun.com/pic/1084947.jpg'
p280
aS'http://fjlarge.b0.upaiyun.com/pic/1175000.jpg'
p281
aS'http://fjlarge.b0.upaiyun.com/pic/1067655.jpg'
p282
aS'http://fjlarge.b0.upaiyun.com/pic/1188144.jpg'
p283
aS'http://fjlarge.b0.upaiyun.com/pic/1049457.jpg'
p284
aS'http://fjlarge.b0.upaiyun.com/pic/1187707.jpg'
p285
aS'http://fjlarge.b0.upaiyun.com/pic/932714.jpg'
p286
aS'http://fjlarge.b0.upaiyun.com/pic/12676.jpg'
p287
aS'http://fjlarge.b0.upaiyun.com/pic/1129562.jpg'
p288
aS'http://fjlarge.b0.upaiyun.com/pic/1038498.jpg'
p289
aS'http://fjlarge.b0.upaiyun.com/pic/1173542.jpg'
p290
aS'http://fjlarge.b0.upaiyun.com/pic/270137.jpg'
p291
aS'http://fjlarge.b0.upaiyun.com/pic/1137453.jpg'
p292
aS'http://fjlarge.b0.upaiyun.com/pic/1019266.jpg'
p293
aS'http://fjlarge.b0.upaiyun.com/pic/1192762.jpg'
p294
aS'http://fjlarge.b0.upaiyun.com/pic/1177529.jpg'
p295
aS'http://fjlarge.b0.upaiyun.com/pic/1182261.jpg'
p296
aS'http://fjlarge.b0.upaiyun.com/pic/1081995.jpg'
p297
aS'http://fjlarge.b0.upaiyun.com/pic/1181615.jpg'
p298
aS'http://fjlarge.b0.upaiyun.com/pic/997153.jpg'
p299
aS'http://fjlarge.b0.upaiyun.com/pic/237461.jpg'
p300
aS'http://fjlarge.b0.upaiyun.com/pic/1151253.jpg'
p301
aS'http://fjlarge.b0.upaiyun.com/pic/158189.jpg'
p302
aS'http://fjlarge.b0.upaiyun.com/pic/1070333.jpg'
p303
aS'http://fjlarge.b0.upaiyun.com/pic/1018675.jpg'
p304
aS'http://fjlarge.b0.upaiyun.com/pic/1182979.jpg'
p305
aS'http://fjlarge.b0.upaiyun.com/pic/1018905.jpg'
p306
aS'http://fjlarge.b0.upaiyun.com/pic/67681.jpg'
p307
aS'http://fjlarge.b0.upaiyun.com/pic/1073579.jpg'
p308
aS'http://fjlarge.b0.upaiyun.com/pic/1105297.jpg'
p309
aS'http://fjlarge.b0.upaiyun.com/pic/1191696.jpg'
p310
aS'http://fjlarge.b0.upaiyun.com/pic/1054896.jpg'
p311
aS'http://fjlarge.b0.upaiyun.com/pic/1151817.jpg'
p312
aS'http://fjlarge.b0.upaiyun.com/pic/237639.jpg'
p313
aS'http://fjlarge.b0.upaiyun.com/pic/1057190.jpg'
p314
aS'http://fjlarge.b0.upaiyun.com/pic/1128713.jpg'
p315
aS'http://fjlarge.b0.upaiyun.com/pic/158005.jpg'
p316
aS'http://fjlarge.b0.upaiyun.com/pic/1088062.jpg'
p317
aS'http://fjlarge.b0.upaiyun.com/pic/1110047.jpg'
p318
aS'http://fjlarge.b0.upaiyun.com/pic/1176498.jpg'
p319
aS'http://fjlarge.b0.upaiyun.com/pic/1066627.jpg'
p320
aS'http://fjlarge.b0.upaiyun.com/pic/44145.jpg'
p321
aS'http://fjlarge.b0.upaiyun.com/pic/1091851.jpg'
p322
aS'http://fjlarge.b0.upaiyun.com/pic/732809.jpg'
p323
aS'http://fjlarge.b0.upaiyun.com/pic/1171118.jpg'
p324
aS'http://fjlarge.b0.upaiyun.com/pic/1195102.jpg'
p325
aS'http://fjlarge.b0.upaiyun.com/pic/14992.jpg'
p326
aS'http://fjlarge.b0.upaiyun.com/pic/1035531.jpg'
p327
aS'http://fjlarge.b0.upaiyun.com/pic/1062890.jpg'
p328
aS'http://fjlarge.b0.upaiyun.com/pic/1176900.jpg'
p329
aS'http://fjlarge.b0.upaiyun.com/pic/16541.jpg'
p330
aS'http://fjlarge.b0.upaiyun.com/pic/268979.jpg'
p331
aS'http://fjlarge.b0.upaiyun.com/pic/784850.jpg'
p332
aS'http://fjlarge.b0.upaiyun.com/pic/1087754.jpg'
p333
aS'http://fjlarge.b0.upaiyun.com/pic/1020482.jpg'
p334
aS'http://fjlarge.b0.upaiyun.com/pic/494505.jpg'
p335
aS'http://fjlarge.b0.upaiyun.com/pic/1137848.jpg'
p336
aS'http://fjlarge.b0.upaiyun.com/pic/1055068.jpg'
p337
aS'http://fjlarge.b0.upaiyun.com/pic/1020909.jpg'
p338
aS'http://fjlarge.b0.upaiyun.com/pic/89463.jpg'
p339
aS'http://fjlarge.b0.upaiyun.com/pic/1047432.jpg'
p340
aS'http://fjlarge.b0.upaiyun.com/pic/1091790.jpg'
p341
aS'http://fjlarge.b0.upaiyun.com/pic/1135757.jpg'
p342
aS'http://fjlarge.b0.upaiyun.com/pic/1149787.jpg'
p343
aS'http://fjlarge.b0.upaiyun.com/pic/1063244.jpg'
p344
aS'http://fjlarge.b0.upaiyun.com/pic/1176909.jpg'
p345
aS'http://fjlarge.b0.upaiyun.com/pic/1078062.jpg'
p346
aS'http://fjlarge.b0.upaiyun.com/pic/1021548.jpg'
p347
aS'http://fjlarge.b0.upaiyun.com/pic/1053729.jpg'
p348
aS'http://fjlarge.b0.upaiyun.com/pic/989717.jpg'
p349
aS'http://fjlarge.b0.upaiyun.com/pic/1004716.jpg'
p350
aS'http://fjlarge.b0.upaiyun.com/pic/1020862.jpg'
p351
aS'http://fjlarge.b0.upaiyun.com/pic/1124337.jpg'
p352
aS'http://fjlarge.b0.upaiyun.com/pic/1145015.jpg'
p353
aS'http://fjlarge.b0.upaiyun.com/pic/675969.jpg'
p354
aS'http://fjlarge.b0.upaiyun.com/pic/1055675.jpg'
p355
aS'http://fjlarge.b0.upaiyun.com/pic/1002733.jpg'
p356
aS'http://fjlarge.b0.upaiyun.com/pic/1170877.jpg'
p357
aS'http://fjlarge.b0.upaiyun.com/pic/1071503.jpg'
p358
aS'http://fjlarge.b0.upaiyun.com/pic/1122096.jpg'
p359
aS'http://fjlarge.b0.upaiyun.com/pic/118731.jpg'
p360
aS'http://fjlarge.b0.upaiyun.com/pic/1142613.jpg'
p361
aS'http://fjlarge.b0.upaiyun.com/pic/919148.jpg'
p362
aS'http://fjlarge.b0.upaiyun.com/pic/681024.jpg'
p363
aS'http://fjlarge.b0.upaiyun.com/pic/1122099.jpg'
p364
aS'http://fjlarge.b0.upaiyun.com/pic/919649.jpg'
p365
aS'http://fjlarge.b0.upaiyun.com/pic/1143116.jpg'
p366
aS'http://fjlarge.b0.upaiyun.com/pic/1116643.jpg'
p367
aS'http://fjlarge.b0.upaiyun.com/pic/1179991.jpg'
p368
aS'http://fjlarge.b0.upaiyun.com/pic/1021478.jpg'
p369
aS'http://fjlarge.b0.upaiyun.com/pic/1149793.jpg'
p370
aS'http://fjlarge.b0.upaiyun.com/pic/1171220.jpg'
p371
aS'http://fjlarge.b0.upaiyun.com/pic/274551.jpg'
p372
aS'http://fjlarge.b0.upaiyun.com/pic/1177992.jpg'
p373
aS'http://fjlarge.b0.upaiyun.com/pic/1194986.jpg'
p374
aS'http://fjlarge.b0.upaiyun.com/pic/1156820.jpg'
p375
aS'http://fjlarge.b0.upaiyun.com/pic/1194222.jpg'
p376
aS'http://fjlarge.b0.upaiyun.com/pic/1067921.jpg'
p377
aS'http://fjlarge.b0.upaiyun.com/pic/1161129.jpg'
p378
aS'http://fjlarge.b0.upaiyun.com/pic/1191814.jpg'
p379
aS'http://fjlarge.b0.upaiyun.com/pic/1195127.jpg'
p380
aS'http://fjlarge.b0.upaiyun.com/pic/1101259.jpg'
p381
aS'http://fjlarge.b0.upaiyun.com/pic/1171162.jpg'
p382
aS'http://fjlarge.b0.upaiyun.com/pic/77701.jpg'
p383
aS'http://fjlarge.b0.upaiyun.com/pic/1026692.jpg'
p384
aS'http://fjlarge.b0.upaiyun.com/pic/1177644.jpg'
p385
aS'http://fjlarge.b0.upaiyun.com/pic/1065180.jpg'
p386
aS'http://fjlarge.b0.upaiyun.com/pic/1056412.jpg'
p387
aS'http://fjlarge.b0.upaiyun.com/pic/1170402.jpg'
p388
aS'http://fjlarge.b0.upaiyun.com/pic/753400.jpg'
p389
aS'http://fjlarge.b0.upaiyun.com/pic/1184713.jpg'
p390
aS'http://fjlarge.b0.upaiyun.com/pic/1044175.jpg'
p391
aS'http://fjlarge.b0.upaiyun.com/pic/596738.jpg'
p392
aS'http://fjlarge.b0.upaiyun.com/pic/1183967.jpg'
p393
aS'http://fjlarge.b0.upaiyun.com/pic/1092292.jpg'
p394
aS'http://fjlarge.b0.upaiyun.com/pic/1176931.jpg'
p395
aS'http://fjlarge.b0.upaiyun.com/pic/1192277.jpg'
p396
aS'http://fjlarge.b0.upaiyun.com/pic/1194475.jpg'
p397
aS'http://fjlarge.b0.upaiyun.com/pic/1194280.jpg'
p398
aS'http://fjlarge.b0.upaiyun.com/pic/1194445.jpg'
p399
aS'http://fjlarge.b0.upaiyun.com/pic/1084539.jpg'
p400
aS'http://fjlarge.b0.upaiyun.com/pic/1090240.jpg'
p401
aS'http://fjlarge.b0.upaiyun.com/pic/1179341.jpg'
p402
aS'http://fjlarge.b0.upaiyun.com/pic/467882.jpg'
p403
aS'http://fjlarge.b0.upaiyun.com/pic/1147016.jpg'
p404
aS'http://fjlarge.b0.upaiyun.com/pic/902064.jpg'
p405
aS'http://fjlarge.b0.upaiyun.com/pic/1193136.jpg'
p406
aS'http://fjlarge.b0.upaiyun.com/pic/1176748.jpg'
p407
aS'http://fjlarge.b0.upaiyun.com/pic/1096941.jpg'
p408
aS'http://fjlarge.b0.upaiyun.com/pic/917210.jpg'
p409
aS'http://fjlarge.b0.upaiyun.com/pic/1041804.jpg'
p410
aS'http://fjlarge.b0.upaiyun.com/pic/1146783.jpg'
p411
aS'http://fjlarge.b0.upaiyun.com/pic/523277.jpg'
p412
aS'http://fjlarge.b0.upaiyun.com/pic/1133358.jpg'
p413
aS'http://fjlarge.b0.upaiyun.com/pic/1094539.jpg'
p414
aS'http://fjlarge.b0.upaiyun.com/pic/1096236.jpg'
p415
aS'http://fjlarge.b0.upaiyun.com/pic/1123051.jpg'
p416
aS'http://fjlarge.b0.upaiyun.com/pic/916412.jpg'
p417
aS'http://fjlarge.b0.upaiyun.com/pic/1102096.jpg'
p418
aS'http://fjlarge.b0.upaiyun.com/pic/1007316.jpg'
p419
aS'http://fjlarge.b0.upaiyun.com/pic/1137582.jpg'
p420
aS'http://fjlarge.b0.upaiyun.com/pic/1029808.jpg'
p421
aS'http://fjlarge.b0.upaiyun.com/pic/1021779.jpg'
p422
aS'http://fjlarge.b0.upaiyun.com/pic/126395.jpg'
p423
aS'http://fjlarge.b0.upaiyun.com/pic/1041727.jpg'
p424
aS'http://fjlarge.b0.upaiyun.com/pic/423136.jpg'
p425
aS'http://fjlarge.b0.upaiyun.com/pic/1064275.jpg'
p426
aS'http://fjlarge.b0.upaiyun.com/pic/1088013.jpg'
p427
aS'http://fjlarge.b0.upaiyun.com/pic/91924.jpg'
p428
aS'http://fjlarge.b0.upaiyun.com/pic/1184457.jpg'
p429
aS'http://fjlarge.b0.upaiyun.com/pic/1130637.jpg'
p430
aS'http://fjlarge.b0.upaiyun.com/pic/1022695.jpg'
p431
aS'http://fjlarge.b0.upaiyun.com/pic/1069276.jpg'
p432
aS'http://fjlarge.b0.upaiyun.com/pic/939396.jpg'
p433
aS'http://fjlarge.b0.upaiyun.com/pic/499642.jpg'
p434
aS'http://fjlarge.b0.upaiyun.com/pic/1172554.jpg'
p435
aS'http://fjlarge.b0.upaiyun.com/pic/1110581.jpg'
p436
aS'http://fjlarge.b0.upaiyun.com/pic/1071267.jpg'
p437
aS'http://fjlarge.b0.upaiyun.com/pic/899502.jpg'
p438
aS'http://fjlarge.b0.upaiyun.com/pic/932731.jpg'
p439
aS'http://fjlarge.b0.upaiyun.com/pic/1129961.jpg'
p440
aS'http://fjlarge.b0.upaiyun.com/pic/1139619.jpg'
p441
aS'http://fjlarge.b0.upaiyun.com/pic/1021177.jpg'
p442
aS'http://fjlarge.b0.upaiyun.com/pic/64730.jpg'
p443
aS'http://fjlarge.b0.upaiyun.com/pic/1026782.jpg'
p444
aS'http://fjlarge.b0.upaiyun.com/pic/597384.jpg'
p445
aS'http://fjlarge.b0.upaiyun.com/pic/124854.jpg'
p446
aS'http://fjlarge.b0.upaiyun.com/pic/1140444.jpg'
p447
aS'http://fjlarge.b0.upaiyun.com/pic/1136008.jpg'
p448
aS'http://fjlarge.b0.upaiyun.com/pic/1180187.jpg'
p449
aS'http://fjlarge.b0.upaiyun.com/pic/505274.jpg'
p450
aS'http://fjlarge.b0.upaiyun.com/pic/1052646.jpg'
p451
aS'http://fjlarge.b0.upaiyun.com/pic/1130770.jpg'
p452
aS'http://fjlarge.b0.upaiyun.com/pic/760787.jpg'
p453
aS'http://fjlarge.b0.upaiyun.com/pic/1099129.jpg'
p454
aS'http://fjlarge.b0.upaiyun.com/pic/437715.jpg'
p455
aS'http://fjlarge.b0.upaiyun.com/pic/1024856.jpg'
p456
aS'http://fjlarge.b0.upaiyun.com/pic/1174919.jpg'
p457
aS'http://fjlarge.b0.upaiyun.com/pic/1344.jpg'
p458
aS'http://fjlarge.b0.upaiyun.com/pic/130165.jpg'
p459
aS'http://fjlarge.b0.upaiyun.com/pic/1105382.jpg'
p460
aS'http://fjlarge.b0.upaiyun.com/pic/116661.jpg'
p461
aS'http://fjlarge.b0.upaiyun.com/pic/1174938.jpg'
p462
aS'http://fjlarge.b0.upaiyun.com/pic/1052967.jpg'
p463
aS'http://fjlarge.b0.upaiyun.com/pic/966375.jpg'
p464
aS'http://fjlarge.b0.upaiyun.com/pic/1179130.jpg'
p465
aS'http://fjlarge.b0.upaiyun.com/pic/1070700.jpg'
p466
aS'http://fjlarge.b0.upaiyun.com/pic/1174041.jpg'
p467
aS'http://fjlarge.b0.upaiyun.com/pic/1112541.jpg'
p468
aS'http://fjlarge.b0.upaiyun.com/pic/1172632.jpg'
p469
aS'http://fjlarge.b0.upaiyun.com/pic/1028562.jpg'
p470
aS'http://fjlarge.b0.upaiyun.com/pic/1189170.jpg'
p471
aS'http://fjlarge.b0.upaiyun.com/pic/1021557.jpg'
p472
aS'http://fjlarge.b0.upaiyun.com/pic/1087958.jpg'
p473
aS'http://fjlarge.b0.upaiyun.com/pic/1032310.jpg'
p474
aS'http://fjlarge.b0.upaiyun.com/pic/1151186.jpg'
p475
aS'http://fjlarge.b0.upaiyun.com/pic/1099764.jpg'
p476
aS'http://fjlarge.b0.upaiyun.com/pic/876830.jpg'
p477
aS'http://fjlarge.b0.upaiyun.com/pic/102947.jpg'
p478
aS'http://fjlarge.b0.upaiyun.com/pic/1051383.jpg'
p479
aS'http://fjlarge.b0.upaiyun.com/pic/1009254.jpg'
p480
aS'http://fjlarge.b0.upaiyun.com/pic/1065145.jpg'
p481
aS'http://fjlarge.b0.upaiyun.com/pic/1113566.jpg'
p482
aS'http://fjlarge.b0.upaiyun.com/pic/1047941.jpg'
p483
aS'http://fjlarge.b0.upaiyun.com/pic/486958.jpg'
p484
aS'http://fjlarge.b0.upaiyun.com/pic/1177422.jpg'
p485
aS'http://fjlarge.b0.upaiyun.com/pic/1118686.jpg'
p486
aS'http://fjlarge.b0.upaiyun.com/pic/1179634.jpg'
p487
aS'http://fjlarge.b0.upaiyun.com/pic/1053372.jpg'
p488
aS'http://fjlarge.b0.upaiyun.com/pic/1124409.jpg'
p489
aS'http://fjlarge.b0.upaiyun.com/pic/955905.jpg'
p490
aS'http://fjlarge.b0.upaiyun.com/pic/1022184.jpg'
p491
aS'http://fjlarge.b0.upaiyun.com/pic/1065396.jpg'
p492
aS'http://fjlarge.b0.upaiyun.com/pic/152465.jpg'
p493
aS'http://fjlarge.b0.upaiyun.com/pic/1052855.jpg'
p494
aS'http://fjlarge.b0.upaiyun.com/pic/918644.jpg'
p495
aS'http://fjlarge.b0.upaiyun.com/pic/1045507.jpg'
p496
aS'http://fjlarge.b0.upaiyun.com/pic/1171383.jpg'
p497
aS'http://fjlarge.b0.upaiyun.com/pic/1196039.jpg'
p498
aS'http://fjlarge.b0.upaiyun.com/pic/1026871.jpg'
p499
aS'http://fjlarge.b0.upaiyun.com/pic/103031.jpg'
p500
aS'http://fjlarge.b0.upaiyun.com/pic/1038326.jpg'
p501
a.